; Function Attrs: mustprogress nofree nounwind uwtable
define internal fastcc void @_ZL19skip_leading_spacesRPcPi(ptr nocapture noundef nonnull align 8 dereferenceable(8) %0, ptr nocapture noundef %1) unnamed_addr #6 {
  %3 = alloca i32, align 4
  store i32 0, ptr %3, align 4
  %4 = load ptr, ptr %0, align 8
  %5 = call i32 (ptr, ptr, ...) @__isoc99_sscanf(ptr noundef %4, ptr noundef nonnull @.str.18, ptr noundef nonnull %3) #14
  %6 = load i32, ptr %3, align 4
  %7 = icmp sgt i32 %6, 0
  br i1 %7, label %8, label %14

8:                                                ; preds = %2
  %9 = load ptr, ptr %0, align 8
  %10 = zext nneg i32 %6 to i64
  %11 = getelementptr inbounds i8, ptr %9, i64 %10
  store ptr %11, ptr %0, align 8
  %12 = load i32, ptr %1, align 4
  %13 = add nsw i32 %12, %6
  store i32 %13, ptr %1, align 4
  br label %14

14:                                               ; preds = %8, %2
  ret void
}